; Function Attrs: mustprogress noinline uwtable
define hidden noundef ptr @_ZN6google8protobuf5Arena18CreateMaybeMessageINS0_17GeneratedCodeInfoEJEEEPT_PS1_DpOT0_(ptr noundef %0) local_unnamed_addr #18 align 2 personality ptr @__gxx_personality_v0 {
  %2 = icmp eq ptr %0, null
  br i1 %2, label %_ZN6google8protobuf5Arena14InternalHelperINS0_17GeneratedCodeInfoEE3NewEv.exit, label %6

_ZN6google8protobuf5Arena14InternalHelperINS0_17GeneratedCodeInfoEE3NewEv.exit: ; preds = %1
  %3 = tail call noalias noundef nonnull dereferenceable(48) ptr @_Znwm(i64 noundef 48) #26
  %4 = getelementptr inbounds nuw i8, ptr %3, i64 8
  store i64 0, ptr %4, align 8, !tbaa !8
  store ptr getelementptr inbounds nuw inrange(-16, 152) (i8, ptr @_ZTVN6google8protobuf17GeneratedCodeInfoE, i64 16), ptr %3, align 8, !tbaa !11
  %5 = getelementptr inbounds nuw i8, ptr %3, i64 16
  tail call void @llvm.memset.p0.i64(ptr noundef nonnull align 8 dereferenceable(28) %5, i8 0, i64 28, i1 false)
  br label %_ZN6google8protobuf5Arena21CreateMessageInternalINS0_17GeneratedCodeInfoEEEPT_PS1_.exit

6:                                                ; preds = %1
  %7 = tail call noundef ptr @_ZN6google8protobuf5Arena23AllocateAlignedWithHookEmPKSt9type_info(ptr noundef nonnull align 8 dereferenceable(32) %0, i64 noundef 48, ptr noundef nonnull @_ZTIN6google8protobuf17GeneratedCodeInfoE)
  %8 = getelementptr inbounds nuw i8, ptr %7, i64 8
  %9 = ptrtoint ptr %0 to i64
  store i64 %9, ptr %8, align 8, !tbaa !8
  store ptr getelementptr inbounds nuw inrange(-16, 152) (i8, ptr @_ZTVN6google8protobuf17GeneratedCodeInfoE, i64 16), ptr %7, align 8, !tbaa !11
  %10 = getelementptr inbounds nuw i8, ptr %7, i64 16
  store ptr %0, ptr %10, align 8, !tbaa !13
  %11 = getelementptr inbounds nuw i8, ptr %7, i64 24
  tail call void @llvm.memset.p0.i64(ptr noundef nonnull align 8 dereferenceable(20) %11, i8 0, i64 20, i1 false)
  br label %_ZN6google8protobuf5Arena21CreateMessageInternalINS0_17GeneratedCodeInfoEEEPT_PS1_.exit

_ZN6google8protobuf5Arena21CreateMessageInternalINS0_17GeneratedCodeInfoEEEPT_PS1_.exit: ; preds = %_ZN6google8protobuf5Arena14InternalHelperINS0_17GeneratedCodeInfoEE3NewEv.exit, %6
  %.0.i = phi ptr [ %3, %_ZN6google8protobuf5Arena14InternalHelperINS0_17GeneratedCodeInfoEE3NewEv.exit ], [ %7, %6 ]
  ret ptr %.0.i
}